; Function Attrs: inlinehint mustprogress nounwind willreturn uwtable
define internal fastcc void @Gia_CutAddUnit(ptr captures(none) %.40.val.8.val, i32 noundef %0) unnamed_addr #2 {
  %2 = sext i32 %0 to i64
  %3 = getelementptr inbounds %struct.Vec_Int_t_, ptr %.40.val.8.val, i64 %2
  %4 = getelementptr i8, ptr %3, i64 4
  %.val8 = load i32, ptr %4, align 4, !tbaa !89
  %5 = icmp eq i32 %.val8, 0
  br i1 %5, label %6, label %22

6:                                                ; preds = %1
  %7 = load i32, ptr %3, align 8, !tbaa !90
  %8 = icmp eq i32 %7, 0
  %9 = getelementptr inbounds nuw i8, ptr %3, i64 8
  %10 = load ptr, ptr %9, align 8, !tbaa !36
  br i1 %8, label %11, label %Vec_IntPush.exit

11:                                               ; preds = %6
  %.not9.i.i = icmp eq ptr %10, null
  br i1 %.not9.i.i, label %14, label %12

12:                                               ; preds = %11
  %13 = tail call dereferenceable_or_null(64) ptr @realloc(ptr noundef nonnull %10, i64 noundef 64) #27
  %.pre.pre = load i32, ptr %4, align 4, !tbaa !89
  br label %Vec_IntGrow.exit.i

14:                                               ; preds = %11
  %15 = tail call noalias dereferenceable_or_null(64) ptr @malloc(i64 noundef 64) #28
  br label %Vec_IntGrow.exit.i

Vec_IntGrow.exit.i:                               ; preds = %14, %12
  %.pre = phi i32 [ %.pre.pre, %12 ], [ 0, %14 ]
  %16 = phi ptr [ %13, %12 ], [ %15, %14 ]
  store ptr %16, ptr %9, align 8, !tbaa !36
  store i32 16, ptr %3, align 8, !tbaa !90
  br label %Vec_IntPush.exit

Vec_IntPush.exit:                                 ; preds = %6, %Vec_IntGrow.exit.i
  %17 = phi i32 [ %.pre, %Vec_IntGrow.exit.i ], [ 0, %6 ]
  %18 = phi ptr [ %16, %Vec_IntGrow.exit.i ], [ %10, %6 ]
  %19 = add nsw i32 %17, 1
  store i32 %19, ptr %4, align 4, !tbaa !89
  %20 = sext i32 %17 to i64
  %21 = getelementptr inbounds i32, ptr %18, i64 %20
  store i32 1, ptr %21, align 4, !tbaa !37
  br label %26

22:                                               ; preds = %1
  %23 = getelementptr i8, ptr %3, i64 8
  %.val9 = load ptr, ptr %23, align 8, !tbaa !36
  %24 = load i32, ptr %.val9, align 4, !tbaa !37
  %25 = add nsw i32 %24, 1
  store i32 %25, ptr %.val9, align 4, !tbaa !37
  br label %26

26:                                               ; preds = %22, %Vec_IntPush.exit
  %27 = phi ptr [ %.val9, %22 ], [ %18, %Vec_IntPush.exit ]
  %28 = load i32, ptr %4, align 4, !tbaa !89
  %29 = load i32, ptr %3, align 8, !tbaa !90
  %30 = icmp eq i32 %28, %29
  br i1 %30, label %31, label %Vec_IntPush.exit16

31:                                               ; preds = %26
  %32 = icmp slt i32 %28, 16
  br i1 %32, label %Vec_IntGrow.exit.i15, label %35

Vec_IntGrow.exit.i15:                             ; preds = %31
  %33 = getelementptr inbounds nuw i8, ptr %3, i64 8
  %34 = tail call dereferenceable_or_null(64) ptr @realloc(ptr noundef nonnull %27, i64 noundef 64) #27
  store ptr %34, ptr %33, align 8, !tbaa !36
  br label %Vec_IntPush.exit16.sink.split

35:                                               ; preds = %31
  %36 = shl nuw nsw i32 %28, 1
  %37 = getelementptr inbounds nuw i8, ptr %3, i64 8
  %38 = zext nneg i32 %36 to i64
  %39 = shl nuw nsw i64 %38, 2
  %40 = tail call ptr @realloc(ptr noundef nonnull %27, i64 noundef %39) #27
  store ptr %40, ptr %37, align 8, !tbaa !36
  br label %Vec_IntPush.exit16.sink.split

Vec_IntPush.exit16.sink.split:                    ; preds = %35, %Vec_IntGrow.exit.i15
  %.sink = phi i32 [ 16, %Vec_IntGrow.exit.i15 ], [ %36, %35 ]
  %.ph = phi ptr [ %34, %Vec_IntGrow.exit.i15 ], [ %40, %35 ]
  store i32 %.sink, ptr %3, align 8, !tbaa !90
  br label %Vec_IntPush.exit16

Vec_IntPush.exit16:                               ; preds = %Vec_IntPush.exit16.sink.split, %26
  %41 = phi ptr [ %27, %26 ], [ %.ph, %Vec_IntPush.exit16.sink.split ]
  %42 = load i32, ptr %4, align 4, !tbaa !89
  %43 = add nsw i32 %42, 1
  store i32 %43, ptr %4, align 4, !tbaa !89
  %44 = sext i32 %42 to i64
  %45 = getelementptr inbounds i32, ptr %41, i64 %44
  store i32 1, ptr %45, align 4, !tbaa !37
  %46 = load i32, ptr %4, align 4, !tbaa !89
  %47 = load i32, ptr %3, align 8, !tbaa !90
  %48 = icmp eq i32 %46, %47
  br i1 %48, label %49, label %Vec_IntPush.exit23

49:                                               ; preds = %Vec_IntPush.exit16
  %50 = icmp slt i32 %46, 16
  br i1 %50, label %Vec_IntGrow.exit.i22, label %53

Vec_IntGrow.exit.i22:                             ; preds = %49
  %51 = getelementptr inbounds nuw i8, ptr %3, i64 8
  %52 = tail call dereferenceable_or_null(64) ptr @realloc(ptr noundef nonnull %41, i64 noundef 64) #27
  store ptr %52, ptr %51, align 8, !tbaa !36
  br label %Vec_IntPush.exit23.sink.split

53:                                               ; preds = %49
  %54 = shl nuw nsw i32 %46, 1
  %55 = getelementptr inbounds nuw i8, ptr %3, i64 8
  %56 = zext nneg i32 %54 to i64
  %57 = shl nuw nsw i64 %56, 2
  %58 = tail call ptr @realloc(ptr noundef nonnull %41, i64 noundef %57) #27
  store ptr %58, ptr %55, align 8, !tbaa !36
  br label %Vec_IntPush.exit23.sink.split

Vec_IntPush.exit23.sink.split:                    ; preds = %53, %Vec_IntGrow.exit.i22
  %.sink4 = phi i32 [ 16, %Vec_IntGrow.exit.i22 ], [ %54, %53 ]
  %.ph3 = phi ptr [ %52, %Vec_IntGrow.exit.i22 ], [ %58, %53 ]
  store i32 %.sink4, ptr %3, align 8, !tbaa !90
  br label %Vec_IntPush.exit23

Vec_IntPush.exit23:                               ; preds = %Vec_IntPush.exit23.sink.split, %Vec_IntPush.exit16
  %59 = phi ptr [ %41, %Vec_IntPush.exit16 ], [ %.ph3, %Vec_IntPush.exit23.sink.split ]
  %60 = load i32, ptr %4, align 4, !tbaa !89
  %61 = add nsw i32 %60, 1
  store i32 %61, ptr %4, align 4, !tbaa !89
  %62 = sext i32 %60 to i64
  %63 = getelementptr inbounds i32, ptr %59, i64 %62
  store i32 %0, ptr %63, align 4, !tbaa !37
  %64 = load i32, ptr %4, align 4, !tbaa !89
  %65 = load i32, ptr %3, align 8, !tbaa !90
  %66 = icmp eq i32 %64, %65
  br i1 %66, label %67, label %Vec_IntPush.exit30

67:                                               ; preds = %Vec_IntPush.exit23
  %68 = icmp slt i32 %64, 16
  br i1 %68, label %Vec_IntGrow.exit.i29, label %71

Vec_IntGrow.exit.i29:                             ; preds = %67
  %69 = getelementptr inbounds nuw i8, ptr %3, i64 8
  %70 = tail call dereferenceable_or_null(64) ptr @realloc(ptr noundef nonnull %59, i64 noundef 64) #27
  store ptr %70, ptr %69, align 8, !tbaa !36
  br label %Vec_IntPush.exit30.sink.split

71:                                               ; preds = %67
  %72 = shl nuw nsw i32 %64, 1
  %73 = getelementptr inbounds nuw i8, ptr %3, i64 8
  %74 = zext nneg i32 %72 to i64
  %75 = shl nuw nsw i64 %74, 2
  %76 = tail call ptr @realloc(ptr noundef nonnull %59, i64 noundef %75) #27
  store ptr %76, ptr %73, align 8, !tbaa !36
  br label %Vec_IntPush.exit30.sink.split

Vec_IntPush.exit30.sink.split:                    ; preds = %71, %Vec_IntGrow.exit.i29
  %.sink6 = phi i32 [ 16, %Vec_IntGrow.exit.i29 ], [ %72, %71 ]
  %.ph5 = phi ptr [ %70, %Vec_IntGrow.exit.i29 ], [ %76, %71 ]
  store i32 %.sink6, ptr %3, align 8, !tbaa !90
  br label %Vec_IntPush.exit30

Vec_IntPush.exit30:                               ; preds = %Vec_IntPush.exit30.sink.split, %Vec_IntPush.exit23
  %77 = phi ptr [ %59, %Vec_IntPush.exit23 ], [ %.ph5, %Vec_IntPush.exit30.sink.split ]
  %78 = load i32, ptr %4, align 4, !tbaa !89
  %79 = add nsw i32 %78, 1
  store i32 %79, ptr %4, align 4, !tbaa !89
  %80 = sext i32 %78 to i64
  %81 = getelementptr inbounds i32, ptr %77, i64 %80
  store i32 2, ptr %81, align 4, !tbaa !37
  ret void
}